target datalayout = "e-m:e-p270:32:32-p271:32:32-p272:64:64-i64:64-i128:128-f80:128-n8:16:32:64-S128"
target triple = "x86_64-pc-linux-gnu"

@hf_ulmap_ie_diuc_ext = internal global i32 0, align 4
@hf_ulmap_ie_length = internal global i32 0, align 4
@hf_ulmap_power_control = internal global i32 0, align 4
@hf_ulmap_power_measurement_frame = internal global i32 0, align 4
@ett_292 = internal global i32 0, align 4
@.str.544 = private unnamed_addr constant [17 x i8] c"Power_Control_IE\00", align 1

; Function Attrs: null_pointer_is_valid sspstrong uwtable
define internal i32 @Power_Control_IE(ptr noundef %0, i32 noundef %1, i32 noundef %2, ptr noundef %3) #1 {
  %5 = alloca ptr, align 8
  %6 = alloca i32, align 4
  %7 = alloca i32, align 4
  %8 = alloca ptr, align 8
  %9 = alloca i32, align 4
  %10 = alloca i32, align 4
  %11 = alloca ptr, align 8
  store ptr %0, ptr %5, align 8
  store i32 %1, ptr %6, align 4
  store i32 %2, ptr %7, align 4
  store ptr %3, ptr %8, align 8
  call void @llvm.lifetime.start.p0(i64 4, ptr %9) #5
  call void @llvm.lifetime.start.p0(i64 4, ptr %10) #5
  call void @llvm.lifetime.start.p0(i64 8, ptr %11) #5
  %12 = load i32, ptr %6, align 4
  store i32 %12, ptr %9, align 4
  %13 = load ptr, ptr %5, align 8
  %14 = load ptr, ptr %8, align 8
  %15 = load i32, ptr %6, align 4
  %16 = sdiv i32 %15, 2
  %17 = load i32, ptr %6, align 4
  %18 = and i32 %17, 1
  %19 = add i32 1, %18
  %20 = load i32, ptr %7, align 4
  %21 = add i32 %19, %20
  %22 = sdiv i32 %21, 2
  %23 = load i32, ptr @ett_292, align 4
  %24 = call ptr @proto_tree_add_subtree(ptr noundef %13, ptr noundef %14, i32 noundef %16, i32 noundef %22, i32 noundef %23, ptr noundef null, ptr noundef @.str.544)
  store ptr %24, ptr %11, align 8
  br label %25

25:                                               ; preds = %4
  %26 = load i32, ptr %9, align 4
  %27 = and i32 %26, 1
  %28 = icmp ne i32 %27, 0
  br i1 %28, label %29, label %36

29:                                               ; preds = %25
  %30 = load ptr, ptr %8, align 8
  %31 = load i32, ptr %9, align 4
  %32 = sdiv i32 %31, 2
  %33 = call zeroext i8 @tvb_get_uint8(ptr noundef %30, i32 noundef %32)
  %34 = zext i8 %33 to i32
  %35 = and i32 %34, 15
  br label %44

36:                                               ; preds = %25
  %37 = load ptr, ptr %8, align 8
  %38 = load i32, ptr %9, align 4
  %39 = sdiv i32 %38, 2
  %40 = call zeroext i8 @tvb_get_uint8(ptr noundef %37, i32 noundef %39)
  %41 = zext i8 %40 to i32
  %42 = ashr i32 %41, 4
  %43 = and i32 %42, 15
  br label %44

44:                                               ; preds = %36, %29
  %45 = phi i32 [ %35, %29 ], [ %43, %36 ]
  store i32 %45, ptr %10, align 4
  %46 = load ptr, ptr %11, align 8
  %47 = load i32, ptr @hf_ulmap_ie_diuc_ext, align 4
  %48 = load ptr, ptr %8, align 8
  %49 = load i32, ptr %9, align 4
  %50 = sdiv i32 %49, 2
  %51 = load i32, ptr %9, align 4
  %52 = and i32 %51, 1
  %53 = add i32 1, %52
  %54 = add i32 %53, 1
  %55 = sdiv i32 %54, 2
  %56 = load i32, ptr %10, align 4
  %57 = call ptr @proto_tree_add_uint(ptr noundef %46, i32 noundef %47, ptr noundef %48, i32 noundef %50, i32 noundef %55, i32 noundef %56)
  %58 = load i32, ptr %9, align 4
  %59 = add i32 %58, 1
  store i32 %59, ptr %9, align 4
  br label %60

60:                                               ; preds = %44
  br label %61

61:                                               ; preds = %60
  br label %62

62:                                               ; preds = %61
  %63 = load i32, ptr %9, align 4
  %64 = and i32 %63, 1
  %65 = icmp ne i32 %64, 0
  br i1 %65, label %66, label %73

66:                                               ; preds = %62
  %67 = load ptr, ptr %8, align 8
  %68 = load i32, ptr %9, align 4
  %69 = sdiv i32 %68, 2
  %70 = call zeroext i8 @tvb_get_uint8(ptr noundef %67, i32 noundef %69)
  %71 = zext i8 %70 to i32
  %72 = and i32 %71, 15
  br label %81

73:                                               ; preds = %62
  %74 = load ptr, ptr %8, align 8
  %75 = load i32, ptr %9, align 4
  %76 = sdiv i32 %75, 2
  %77 = call zeroext i8 @tvb_get_uint8(ptr noundef %74, i32 noundef %76)
  %78 = zext i8 %77 to i32
  %79 = ashr i32 %78, 4
  %80 = and i32 %79, 15
  br label %81

81:                                               ; preds = %73, %66
  %82 = phi i32 [ %72, %66 ], [ %80, %73 ]
  store i32 %82, ptr %10, align 4
  %83 = load ptr, ptr %11, align 8
  %84 = load i32, ptr @hf_ulmap_ie_length, align 4
  %85 = load ptr, ptr %8, align 8
  %86 = load i32, ptr %9, align 4
  %87 = sdiv i32 %86, 2
  %88 = load i32, ptr %9, align 4
  %89 = and i32 %88, 1
  %90 = add i32 1, %89
  %91 = add i32 %90, 1
  %92 = sdiv i32 %91, 2
  %93 = load i32, ptr %10, align 4
  %94 = call ptr @proto_tree_add_uint(ptr noundef %83, i32 noundef %84, ptr noundef %85, i32 noundef %87, i32 noundef %92, i32 noundef %93)
  %95 = load i32, ptr %9, align 4
  %96 = add i32 %95, 1
  store i32 %96, ptr %9, align 4
  br label %97

97:                                               ; preds = %81
  br label %98

98:                                               ; preds = %97
  br label %99

99:                                               ; preds = %98
  %100 = load i32, ptr %9, align 4
  %101 = and i32 %100, 1
  %102 = icmp ne i32 %101, 0
  br i1 %102, label %103, label %111

103:                                              ; preds = %99
  %104 = load ptr, ptr %8, align 8
  %105 = load i32, ptr %9, align 4
  %106 = sdiv i32 %105, 2
  %107 = call zeroext i16 @tvb_get_ntohs(ptr noundef %104, i32 noundef %106)
  %108 = zext i16 %107 to i32
  %109 = ashr i32 %108, 4
  %110 = and i32 %109, 255
  br label %117

111:                                              ; preds = %99
  %112 = load ptr, ptr %8, align 8
  %113 = load i32, ptr %9, align 4
  %114 = sdiv i32 %113, 2
  %115 = call zeroext i8 @tvb_get_uint8(ptr noundef %112, i32 noundef %114)
  %116 = zext i8 %115 to i32
  br label %117

117:                                              ; preds = %111, %103
  %118 = phi i32 [ %110, %103 ], [ %116, %111 ]
  store i32 %118, ptr %10, align 4
  %119 = load ptr, ptr %11, align 8
  %120 = load i32, ptr @hf_ulmap_power_control, align 4
  %121 = load ptr, ptr %8, align 8
  %122 = load i32, ptr %9, align 4
  %123 = sdiv i32 %122, 2
  %124 = load i32, ptr %9, align 4
  %125 = and i32 %124, 1
  %126 = add i32 1, %125
  %127 = add i32 %126, 2
  %128 = sdiv i32 %127, 2
  %129 = load i32, ptr %10, align 4
  %130 = call ptr @proto_tree_add_uint(ptr noundef %119, i32 noundef %120, ptr noundef %121, i32 noundef %123, i32 noundef %128, i32 noundef %129)
  %131 = load i32, ptr %9, align 4
  %132 = add i32 %131, 2
  store i32 %132, ptr %9, align 4
  br label %133

133:                                              ; preds = %117
  br label %134

134:                                              ; preds = %133
  br label %135

135:                                              ; preds = %134
  %136 = load i32, ptr %9, align 4
  %137 = and i32 %136, 1
  %138 = icmp ne i32 %137, 0
  br i1 %138, label %139, label %147

139:                                              ; preds = %135
  %140 = load ptr, ptr %8, align 8
  %141 = load i32, ptr %9, align 4
  %142 = sdiv i32 %141, 2
  %143 = call zeroext i16 @tvb_get_ntohs(ptr noundef %140, i32 noundef %142)
  %144 = zext i16 %143 to i32
  %145 = ashr i32 %144, 4
  %146 = and i32 %145, 255
  br label %153

147:                                              ; preds = %135
  %148 = load ptr, ptr %8, align 8
  %149 = load i32, ptr %9, align 4
  %150 = sdiv i32 %149, 2
  %151 = call zeroext i8 @tvb_get_uint8(ptr noundef %148, i32 noundef %150)
  %152 = zext i8 %151 to i32
  br label %153

153:                                              ; preds = %147, %139
  %154 = phi i32 [ %146, %139 ], [ %152, %147 ]
  store i32 %154, ptr %10, align 4
  %155 = load ptr, ptr %11, align 8
  %156 = load i32, ptr @hf_ulmap_power_measurement_frame, align 4
  %157 = load ptr, ptr %8, align 8
  %158 = load i32, ptr %9, align 4
  %159 = sdiv i32 %158, 2
  %160 = load i32, ptr %9, align 4
  %161 = and i32 %160, 1
  %162 = add i32 1, %161
  %163 = add i32 %162, 2
  %164 = sdiv i32 %163, 2
  %165 = load i32, ptr %10, align 4
  %166 = call ptr @proto_tree_add_uint(ptr noundef %155, i32 noundef %156, ptr noundef %157, i32 noundef %159, i32 noundef %164, i32 noundef %165)
  %167 = load i32, ptr %9, align 4
  %168 = add i32 %167, 2
  store i32 %168, ptr %9, align 4
  br label %169

169:                                              ; preds = %153
  br label %170

170:                                              ; preds = %169
  %171 = load i32, ptr %9, align 4
  call void @llvm.lifetime.end.p0(i64 8, ptr %11) #5
  call void @llvm.lifetime.end.p0(i64 4, ptr %10) #5
  call void @llvm.lifetime.end.p0(i64 4, ptr %9) #5
  ret i32 %171
}