; Function Attrs: null_pointer_is_valid sspstrong uwtable
define internal fastcc noundef i32 @Power_Control_IE(ptr noundef %0, i32 noundef %1, i32 noundef range(i32 2, 33) %2, ptr noundef %3) unnamed_addr #1 {
  %5 = sdiv i32 %1, 2
  %6 = and i32 %1, 1
  %7 = add nuw nsw i32 %6, 1
  %8 = add nuw nsw i32 %7, %2
  %9 = lshr i32 %8, 1
  %10 = load i32, ptr @ett_292, align 4
  %11 = tail call ptr @proto_tree_add_subtree(ptr noundef %0, ptr noundef %3, i32 noundef %5, i32 noundef %9, i32 noundef %10, ptr noundef null, ptr noundef nonnull @.str.544)
  %.not = icmp eq i32 %6, 0
  %12 = tail call zeroext i8 @tvb_get_uint8(ptr noundef %3, i32 noundef %5)
  %13 = and i8 %12, 15
  %14 = lshr i8 %12, 4
  %.in = select i1 %.not, i8 %14, i8 %13
  %15 = zext nneg i8 %.in to i32
  %16 = load i32, ptr @hf_ulmap_ie_diuc_ext, align 4
  %17 = tail call ptr @proto_tree_add_uint(ptr noundef %11, i32 noundef %16, ptr noundef %3, i32 noundef %5, i32 noundef 1, i32 noundef %15)
  %18 = add i32 %1, 1
  br i1 %.not, label %19, label %23

19:                                               ; preds = %4
  %20 = sdiv i32 %18, 2
  %21 = tail call zeroext i8 @tvb_get_uint8(ptr noundef %3, i32 noundef %20)
  %22 = and i8 %21, 15
  br label %27

23:                                               ; preds = %4
  %24 = ashr exact i32 %18, 1
  %25 = tail call zeroext i8 @tvb_get_uint8(ptr noundef %3, i32 noundef %24)
  %26 = lshr i8 %25, 4
  %.pre = ashr exact i32 %18, 1
  br label %27

27:                                               ; preds = %23, %19
  %.pre-phi = phi i32 [ %.pre, %23 ], [ %20, %19 ]
  %.in51 = phi i8 [ %26, %23 ], [ %22, %19 ]
  %28 = zext nneg i8 %.in51 to i32
  %29 = load i32, ptr @hf_ulmap_ie_length, align 4
  %30 = tail call ptr @proto_tree_add_uint(ptr noundef %11, i32 noundef %29, ptr noundef %3, i32 noundef %.pre-phi, i32 noundef 1, i32 noundef %28)
  %31 = add i32 %1, 2
  br i1 %.not, label %38, label %32

32:                                               ; preds = %27
  %33 = sdiv i32 %31, 2
  %34 = tail call zeroext i16 @tvb_get_ntohs(ptr noundef %3, i32 noundef %33)
  %35 = lshr i16 %34, 4
  %36 = and i16 %35, 255
  %37 = zext nneg i16 %36 to i32
  br label %42

38:                                               ; preds = %27
  %39 = ashr exact i32 %31, 1
  %40 = tail call zeroext i8 @tvb_get_uint8(ptr noundef %3, i32 noundef %39)
  %41 = zext i8 %40 to i32
  %.pre54 = ashr exact i32 %31, 1
  br label %42

42:                                               ; preds = %38, %32
  %.pre-phi55 = phi i32 [ %.pre54, %38 ], [ %33, %32 ]
  %43 = phi i32 [ %41, %38 ], [ %37, %32 ]
  %44 = load i32, ptr @hf_ulmap_power_control, align 4
  %45 = add nuw nsw i32 %6, 3
  %46 = lshr i32 %45, 1
  %47 = tail call ptr @proto_tree_add_uint(ptr noundef %11, i32 noundef %44, ptr noundef %3, i32 noundef %.pre-phi55, i32 noundef %46, i32 noundef %43)
  %48 = add i32 %1, 4
  br i1 %.not, label %55, label %49

49:                                               ; preds = %42
  %50 = sdiv i32 %48, 2
  %51 = tail call zeroext i16 @tvb_get_ntohs(ptr noundef %3, i32 noundef %50)
  %52 = lshr i16 %51, 4
  %53 = and i16 %52, 255
  %54 = zext nneg i16 %53 to i32
  br label %59

55:                                               ; preds = %42
  %56 = ashr exact i32 %48, 1
  %57 = tail call zeroext i8 @tvb_get_uint8(ptr noundef %3, i32 noundef %56)
  %58 = zext i8 %57 to i32
  %.pre56 = ashr exact i32 %48, 1
  br label %59

59:                                               ; preds = %55, %49
  %.pre-phi57 = phi i32 [ %.pre56, %55 ], [ %50, %49 ]
  %60 = phi i32 [ %58, %55 ], [ %54, %49 ]
  %61 = load i32, ptr @hf_ulmap_power_measurement_frame, align 4
  %62 = tail call ptr @proto_tree_add_uint(ptr noundef %11, i32 noundef %61, ptr noundef %3, i32 noundef %.pre-phi57, i32 noundef %46, i32 noundef %60)
  %63 = add i32 %1, 6
  ret i32 %63
}